target datalayout = "e-m:e-p270:32:32-p271:32:32-p272:64:64-i64:64-i128:128-f80:128-n8:16:32:64-S128"
target triple = "x86_64-pc-linux-gnu"

%"class.absl::time_internal::cctz::TimeZoneInfo" = type { %"class.absl::time_internal::cctz::TimeZoneIf", %"class.std::vector", %"class.std::vector.0", i8, %"class.std::__cxx11::basic_string", %"class.std::__cxx11::basic_string", %"class.std::__cxx11::basic_string", i8, i64, %"struct.std::atomic", %"struct.std::atomic" }
%"class.absl::time_internal::cctz::TimeZoneIf" = type { ptr }
%"class.std::vector" = type { %"struct.std::_Vector_base" }
%"struct.std::_Vector_base" = type { %"struct.std::_Vector_base<absl::time_internal::cctz::Transition, std::allocator<absl::time_internal::cctz::Transition>>::_Vector_impl" }
%"struct.std::_Vector_base<absl::time_internal::cctz::Transition, std::allocator<absl::time_internal::cctz::Transition>>::_Vector_impl" = type { %"struct.std::_Vector_base<absl::time_internal::cctz::Transition, std::allocator<absl::time_internal::cctz::Transition>>::_Vector_impl_data" }
%"struct.std::_Vector_base<absl::time_internal::cctz::Transition, std::allocator<absl::time_internal::cctz::Transition>>::_Vector_impl_data" = type { ptr, ptr, ptr }
%"class.std::vector.0" = type { %"struct.std::_Vector_base.1" }
%"struct.std::_Vector_base.1" = type { %"struct.std::_Vector_base<absl::time_internal::cctz::TransitionType, std::allocator<absl::time_internal::cctz::TransitionType>>::_Vector_impl" }
%"struct.std::_Vector_base<absl::time_internal::cctz::TransitionType, std::allocator<absl::time_internal::cctz::TransitionType>>::_Vector_impl" = type { %"struct.std::_Vector_base<absl::time_internal::cctz::TransitionType, std::allocator<absl::time_internal::cctz::TransitionType>>::_Vector_impl_data" }
%"struct.std::_Vector_base<absl::time_internal::cctz::TransitionType, std::allocator<absl::time_internal::cctz::TransitionType>>::_Vector_impl_data" = type { ptr, ptr, ptr }
%"class.std::__cxx11::basic_string" = type { %"struct.std::__cxx11::basic_string<char>::_Alloc_hider", i64, %union.anon }
%"struct.std::__cxx11::basic_string<char>::_Alloc_hider" = type { ptr }
%union.anon = type { i64, [8 x i8] }
%"struct.std::atomic" = type { %"struct.std::__atomic_base" }
%"struct.std::__atomic_base" = type { i64 }
%"struct.absl::time_internal::cctz::TransitionType" = type <{ i32, [4 x i8], %"class.absl::time_internal::cctz::detail::civil_time", %"class.absl::time_internal::cctz::detail::civil_time", i8, i8, [6 x i8] }>
%"class.absl::time_internal::cctz::detail::civil_time" = type { %"struct.absl::time_internal::cctz::detail::fields" }
%"struct.absl::time_internal::cctz::detail::fields" = type <{ i64, i8, i8, i8, i8, i8, [3 x i8] }>
%"struct.absl::time_internal::cctz::time_zone::absolute_lookup" = type { %"class.absl::time_internal::cctz::detail::civil_time", i32, i8, ptr }
%"struct.absl::time_internal::cctz::Transition" = type { i64, i8, [7 x i8], %"class.absl::time_internal::cctz::detail::civil_time", %"class.absl::time_internal::cctz::detail::civil_time" }

; Function Attrs: mustprogress nounwind uwtable
define linkonce_odr dso_local { i64, i64 } @_ZN4absl13time_internal4cctz6detail5alignENS2_10second_tagENS2_6fieldsE(i64 %0, i64 %1) #2 comdat {
  %3 = alloca %"struct.absl::time_internal::cctz::detail::fields", align 8
  %4 = alloca %"struct.absl::time_internal::cctz::detail::fields", align 8
  %5 = getelementptr inbounds nuw { i64, i64 }, ptr %4, i32 0, i32 0
  store i64 %0, ptr %5, align 8
  %6 = getelementptr inbounds nuw { i64, i64 }, ptr %4, i32 0, i32 1
  store i64 %1, ptr %6, align 8
  call void @llvm.memcpy.p0.p0.i64(ptr align 8 %3, ptr align 8 %4, i64 16, i1 false), !tbaa.struct !73
  %7 = load { i64, i64 }, ptr %3, align 8
  ret { i64, i64 } %7
}

; Function Attrs: mustprogress nounwind uwtable
define available_externally noundef ptr @_ZNKSt7__cxx1112basic_stringIcSt11char_traitsIcESaIcEE7_M_dataEv(ptr noundef nonnull align 8 dereferenceable(32) %0) #2 align 2 {
  %2 = alloca ptr, align 8
  store ptr %0, ptr %2, align 8, !tbaa !13
  %3 = load ptr, ptr %2, align 8
  %4 = getelementptr inbounds nuw %"class.std::__cxx11::basic_string", ptr %3, i32 0, i32 0
  %5 = getelementptr inbounds nuw %"struct.std::__cxx11::basic_string<char>::_Alloc_hider", ptr %4, i32 0, i32 0
  %6 = load ptr, ptr %5, align 8, !tbaa !214
  ret ptr %6
}

; Function Attrs: mustprogress nounwind uwtable
define linkonce_odr dso_local void @_ZN4absl13time_internal4cctz6detail10civil_timeINS2_10second_tagEEC2ENS2_6fieldsE(ptr noundef nonnull align 8 dereferenceable(16) %0, i64 %1, i64 %2) unnamed_addr #2 comdat align 2 {
  %4 = alloca %"struct.absl::time_internal::cctz::detail::fields", align 8
  %5 = alloca ptr, align 8
  %6 = alloca %"struct.absl::time_internal::cctz::detail::fields", align 8
  %7 = alloca { i64, i64 }, align 8
  %8 = getelementptr inbounds nuw { i64, i64 }, ptr %4, i32 0, i32 0
  store i64 %1, ptr %8, align 8
  %9 = getelementptr inbounds nuw { i64, i64 }, ptr %4, i32 0, i32 1
  store i64 %2, ptr %9, align 8
  store ptr %0, ptr %5, align 8, !tbaa !91
  %10 = load ptr, ptr %5, align 8
  call void @llvm.memcpy.p0.p0.i64(ptr align 8 %6, ptr align 8 %4, i64 16, i1 false), !tbaa.struct !73
  %11 = getelementptr inbounds nuw { i64, i64 }, ptr %6, i32 0, i32 0
  %12 = load i64, ptr %11, align 8
  %13 = getelementptr inbounds nuw { i64, i64 }, ptr %6, i32 0, i32 1
  %14 = load i64, ptr %13, align 8
  %15 = call { i64, i64 } @_ZN4absl13time_internal4cctz6detail5alignENS2_10second_tagENS2_6fieldsE(i64 %12, i64 %14) #17
  store { i64, i64 } %15, ptr %7, align 8
  call void @llvm.memcpy.p0.p0.i64(ptr align 8 %10, ptr align 8 %7, i64 13, i1 false)
  ret void
}

; Function Attrs: mustprogress nounwind uwtable
define linkonce_odr dso_local { i64, i64 } @_ZN4absl13time_internal4cctz6detail4stepENS2_10second_tagENS2_6fieldsEl(i64 %0, i64 %1, i64 noundef %2) #2 comdat {
  %4 = alloca %"struct.absl::time_internal::cctz::detail::fields", align 8
  %5 = alloca %"struct.absl::time_internal::cctz::detail::fields", align 8
  %6 = alloca i64, align 8
  %7 = alloca { i64, i64 }, align 8
  %8 = getelementptr inbounds nuw { i64, i64 }, ptr %5, i32 0, i32 0
  store i64 %0, ptr %8, align 8
  %9 = getelementptr inbounds nuw { i64, i64 }, ptr %5, i32 0, i32 1
  store i64 %1, ptr %9, align 8
  store i64 %2, ptr %6, align 8, !tbaa !9
  %10 = getelementptr inbounds nuw %"struct.absl::time_internal::cctz::detail::fields", ptr %5, i32 0, i32 0
  %11 = load i64, ptr %10, align 8, !tbaa !217
  %12 = getelementptr inbounds nuw %"struct.absl::time_internal::cctz::detail::fields", ptr %5, i32 0, i32 1
  %13 = load i8, ptr %12, align 8, !tbaa !218
  %14 = sext i8 %13 to i64
  %15 = getelementptr inbounds nuw %"struct.absl::time_internal::cctz::detail::fields", ptr %5, i32 0, i32 2
  %16 = load i8, ptr %15, align 1, !tbaa !219
  %17 = sext i8 %16 to i64
  %18 = getelementptr inbounds nuw %"struct.absl::time_internal::cctz::detail::fields", ptr %5, i32 0, i32 3
  %19 = load i8, ptr %18, align 2, !tbaa !220
  %20 = sext i8 %19 to i64
  %21 = getelementptr inbounds nuw %"struct.absl::time_internal::cctz::detail::fields", ptr %5, i32 0, i32 4
  %22 = load i8, ptr %21, align 1, !tbaa !221
  %23 = sext i8 %22 to i64
  %24 = load i64, ptr %6, align 8, !tbaa !9
  %25 = sdiv i64 %24, 60
  %26 = add nsw i64 %23, %25
  %27 = getelementptr inbounds nuw %"struct.absl::time_internal::cctz::detail::fields", ptr %5, i32 0, i32 5
  %28 = load i8, ptr %27, align 4, !tbaa !222
  %29 = sext i8 %28 to i64
  %30 = load i64, ptr %6, align 8, !tbaa !9
  %31 = srem i64 %30, 60
  %32 = add nsw i64 %29, %31
  %33 = call { i64, i64 } @_ZN4absl13time_internal4cctz6detail4impl5n_secEllllll(i64 noundef %11, i64 noundef %14, i64 noundef %17, i64 noundef %20, i64 noundef %26, i64 noundef %32) #17
  store { i64, i64 } %33, ptr %7, align 8
  call void @llvm.memcpy.p0.p0.i64(ptr align 8 %4, ptr align 8 %7, i64 13, i1 false)
  %34 = load { i64, i64 }, ptr %4, align 8
  ret { i64, i64 } %34
}

; Function Attrs: mustprogress nounwind uwtable
define available_externally noundef nonnull align 1 dereferenceable(1) ptr @_ZNKSt7__cxx1112basic_stringIcSt11char_traitsIcESaIcEEixEm(ptr noundef nonnull align 8 dereferenceable(32) %0, i64 noundef %1) #2 align 2 {
  %3 = alloca ptr, align 8
  %4 = alloca i64, align 8
  store ptr %0, ptr %3, align 8, !tbaa !13
  store i64 %1, ptr %4, align 8, !tbaa !9
  %5 = load ptr, ptr %3, align 8
  br label %6

6:                                                ; preds = %2
  br label %7

7:                                                ; preds = %6
  br label %8

8:                                                ; preds = %7
  %9 = call noundef ptr @_ZNKSt7__cxx1112basic_stringIcSt11char_traitsIcESaIcEE7_M_dataEv(ptr noundef nonnull align 8 dereferenceable(32) %5)
  %10 = load i64, ptr %4, align 8, !tbaa !9
  %11 = getelementptr inbounds nuw i8, ptr %9, i64 %10
  ret ptr %11
}

; Function Attrs: mustprogress nounwind uwtable
define linkonce_odr dso_local { i64, i64 } @_ZN4absl13time_internal4cctz6detailplENS2_10civil_timeINS2_10second_tagEEEl(i64 %0, i64 %1, i64 noundef %2) #2 comdat {
  %4 = alloca %"class.absl::time_internal::cctz::detail::civil_time", align 8
  %5 = alloca %"class.absl::time_internal::cctz::detail::civil_time", align 8
  %6 = alloca i64, align 8
  %7 = alloca %"struct.absl::time_internal::cctz::detail::fields", align 8
  %8 = alloca %"struct.absl::time_internal::cctz::detail::fields", align 8
  %9 = alloca { i64, i64 }, align 8
  %10 = getelementptr inbounds nuw { i64, i64 }, ptr %5, i32 0, i32 0
  store i64 %0, ptr %10, align 8
  %11 = getelementptr inbounds nuw { i64, i64 }, ptr %5, i32 0, i32 1
  store i64 %1, ptr %11, align 8
  store i64 %2, ptr %6, align 8, !tbaa !9
  %12 = getelementptr inbounds nuw %"class.absl::time_internal::cctz::detail::civil_time", ptr %5, i32 0, i32 0
  call void @llvm.memcpy.p0.p0.i64(ptr align 8 %8, ptr align 8 %12, i64 16, i1 false), !tbaa.struct !73
  %13 = load i64, ptr %6, align 8, !tbaa !9
  %14 = getelementptr inbounds nuw { i64, i64 }, ptr %8, i32 0, i32 0
  %15 = load i64, ptr %14, align 8
  %16 = getelementptr inbounds nuw { i64, i64 }, ptr %8, i32 0, i32 1
  %17 = load i64, ptr %16, align 8
  %18 = call { i64, i64 } @_ZN4absl13time_internal4cctz6detail4stepENS2_10second_tagENS2_6fieldsEl(i64 %15, i64 %17, i64 noundef %13) #17
  store { i64, i64 } %18, ptr %9, align 8
  call void @llvm.memcpy.p0.p0.i64(ptr align 8 %7, ptr align 8 %9, i64 13, i1 false)
  %19 = getelementptr inbounds nuw { i64, i64 }, ptr %7, i32 0, i32 0
  %20 = load i64, ptr %19, align 8
  %21 = getelementptr inbounds nuw { i64, i64 }, ptr %7, i32 0, i32 1
  %22 = load i64, ptr %21, align 8
  call void @_ZN4absl13time_internal4cctz6detail10civil_timeINS2_10second_tagEEC2ENS2_6fieldsE(ptr noundef nonnull align 8 dereferenceable(16) %4, i64 %20, i64 %22) #17
  %23 = getelementptr inbounds nuw %"class.absl::time_internal::cctz::detail::civil_time", ptr %4, i32 0, i32 0
  %24 = load { i64, i64 }, ptr %23, align 8
  ret { i64, i64 } %24
}

; Function Attrs: mustprogress nounwind uwtable
define linkonce_odr dso_local noundef nonnull align 8 dereferenceable(42) ptr @_ZNKSt6vectorIN4absl13time_internal4cctz14TransitionTypeESaIS3_EEixEm(ptr noundef nonnull align 8 dereferenceable(24) %0, i64 noundef %1) #2 comdat align 2 {
  %3 = alloca ptr, align 8
  %4 = alloca i64, align 8
  store ptr %0, ptr %3, align 8, !tbaa !34
  store i64 %1, ptr %4, align 8, !tbaa !9
  %5 = load ptr, ptr %3, align 8
  %6 = getelementptr inbounds nuw %"struct.std::_Vector_base.1", ptr %5, i32 0, i32 0
  %7 = getelementptr inbounds nuw %"struct.std::_Vector_base<absl::time_internal::cctz::TransitionType, std::allocator<absl::time_internal::cctz::TransitionType>>::_Vector_impl_data", ptr %6, i32 0, i32 0
  %8 = load ptr, ptr %7, align 8, !tbaa !38
  %9 = load i64, ptr %4, align 8, !tbaa !9
  %10 = getelementptr inbounds nuw %"struct.absl::time_internal::cctz::TransitionType", ptr %8, i64 %9
  ret ptr %10
}

; Function Attrs: mustprogress nounwind uwtable
define dso_local void @_ZNK4absl13time_internal4cctz12TimeZoneInfo9LocalTimeElRKNS1_10TransitionE(ptr dead_on_unwind noalias writable sret(%"struct.absl::time_internal::cctz::time_zone::absolute_lookup") align 8 %0, ptr noundef nonnull align 8 dereferenceable(192) %1, i64 noundef %2, ptr noundef nonnull align 8 dereferenceable(48) %3) #2 align 2 {
  %5 = alloca ptr, align 8
  %6 = alloca i64, align 8
  %7 = alloca ptr, align 8
  %8 = alloca ptr, align 8
  %9 = alloca %"class.absl::time_internal::cctz::detail::civil_time", align 8
  store ptr %1, ptr %5, align 8, !tbaa !4
  store i64 %2, ptr %6, align 8, !tbaa !9
  store ptr %3, ptr %7, align 8, !tbaa !70
  %10 = load ptr, ptr %5, align 8
  call void @llvm.lifetime.start.p0(i64 8, ptr %8) #17
  %11 = getelementptr inbounds nuw %"class.absl::time_internal::cctz::TimeZoneInfo", ptr %10, i32 0, i32 2
  %12 = load ptr, ptr %7, align 8, !tbaa !70
  %13 = getelementptr inbounds nuw %"struct.absl::time_internal::cctz::Transition", ptr %12, i32 0, i32 1
  %14 = load i8, ptr %13, align 8, !tbaa !67
  %15 = zext i8 %14 to i64
  %16 = call noundef nonnull align 8 dereferenceable(42) ptr @_ZNKSt6vectorIN4absl13time_internal4cctz14TransitionTypeESaIS3_EEixEm(ptr noundef nonnull align 8 dereferenceable(24) %11, i64 noundef %15) #17
  store ptr %16, ptr %8, align 8, !tbaa !17
  %17 = load ptr, ptr %7, align 8, !tbaa !70
  %18 = getelementptr inbounds nuw %"struct.absl::time_internal::cctz::Transition", ptr %17, i32 0, i32 3
  call void @llvm.memcpy.p0.p0.i64(ptr align 8 %9, ptr align 8 %18, i64 16, i1 false), !tbaa.struct !73
  %19 = load i64, ptr %6, align 8, !tbaa !9
  %20 = load ptr, ptr %7, align 8, !tbaa !70
  %21 = getelementptr inbounds nuw %"struct.absl::time_internal::cctz::Transition", ptr %20, i32 0, i32 0
  %22 = load i64, ptr %21, align 8, !tbaa !71
  %23 = sub nsw i64 %19, %22
  %24 = getelementptr inbounds nuw { i64, i64 }, ptr %9, i32 0, i32 0
  %25 = load i64, ptr %24, align 8
  %26 = getelementptr inbounds nuw { i64, i64 }, ptr %9, i32 0, i32 1
  %27 = load i64, ptr %26, align 8
  %28 = call { i64, i64 } @_ZN4absl13time_internal4cctz6detailplENS2_10civil_timeINS2_10second_tagEEEl(i64 %25, i64 %27, i64 noundef %23) #17
  %29 = getelementptr inbounds nuw %"class.absl::time_internal::cctz::detail::civil_time", ptr %0, i32 0, i32 0
  %30 = getelementptr inbounds nuw { i64, i64 }, ptr %29, i32 0, i32 0
  %31 = extractvalue { i64, i64 } %28, 0
  store i64 %31, ptr %30, align 8
  %32 = getelementptr inbounds nuw { i64, i64 }, ptr %29, i32 0, i32 1
  %33 = extractvalue { i64, i64 } %28, 1
  store i64 %33, ptr %32, align 8
  %34 = getelementptr inbounds nuw %"struct.absl::time_internal::cctz::time_zone::absolute_lookup", ptr %0, i32 0, i32 1
  %35 = load ptr, ptr %8, align 8, !tbaa !17
  %36 = getelementptr inbounds nuw %"struct.absl::time_internal::cctz::TransitionType", ptr %35, i32 0, i32 0
  %37 = load i32, ptr %36, align 8, !tbaa !24
  store i32 %37, ptr %34, align 8, !tbaa !87
  %38 = getelementptr inbounds nuw %"struct.absl::time_internal::cctz::time_zone::absolute_lookup", ptr %0, i32 0, i32 2
  %39 = load ptr, ptr %8, align 8, !tbaa !17
  %40 = getelementptr inbounds nuw %"struct.absl::time_internal::cctz::TransitionType", ptr %39, i32 0, i32 4
  %41 = load i8, ptr %40, align 8, !tbaa !25, !range !26, !noundef !27
  %42 = trunc i8 %41 to i1
  %43 = zext i1 %42 to i8
  store i8 %43, ptr %38, align 4, !tbaa !89
  %44 = getelementptr inbounds nuw %"struct.absl::time_internal::cctz::time_zone::absolute_lookup", ptr %0, i32 0, i32 3
  %45 = getelementptr inbounds nuw %"class.absl::time_internal::cctz::TimeZoneInfo", ptr %10, i32 0, i32 4
  %46 = load ptr, ptr %8, align 8, !tbaa !17
  %47 = getelementptr inbounds nuw %"struct.absl::time_internal::cctz::TransitionType", ptr %46, i32 0, i32 5
  %48 = load i8, ptr %47, align 1, !tbaa !19
  %49 = zext i8 %48 to i64
  %50 = call noundef nonnull align 1 dereferenceable(1) ptr @_ZNKSt7__cxx1112basic_stringIcSt11char_traitsIcESaIcEEixEm(ptr noundef nonnull align 8 dereferenceable(32) %45, i64 noundef %49) #17
  store ptr %50, ptr %44, align 8, !tbaa !90
  call void @llvm.lifetime.end.p0(i64 8, ptr %8) #17
  ret void
}