; Function Attrs: mustprogress nounwind uwtable
define dso_local void @_ZNK4absl13time_internal4cctz12TimeZoneInfo9LocalTimeElRKNS1_10TransitionE(ptr dead_on_unwind noalias writable writeonly sret(%"struct.absl::time_internal::cctz::time_zone::absolute_lookup") align 8 captures(none) initializes((0, 21), (24, 32)) %0, ptr noundef nonnull readonly align 8 captures(none) dereferenceable(192) %1, i64 noundef %2, ptr noundef nonnull readonly align 8 captures(none) dereferenceable(48) %3) local_unnamed_addr #4 align 2 {
  %5 = getelementptr inbounds nuw i8, ptr %1, i64 32
  %6 = getelementptr inbounds nuw i8, ptr %3, i64 8
  %7 = load i8, ptr %6, align 8, !tbaa !55
  %8 = zext i8 %7 to i64
  %9 = load ptr, ptr %5, align 8, !tbaa !15
  %10 = getelementptr inbounds nuw %"struct.absl::time_internal::cctz::TransitionType", ptr %9, i64 %8
  %11 = getelementptr inbounds nuw i8, ptr %3, i64 16
  %.sroa.0.0.copyload = load i64, ptr %11, align 8, !tbaa !74
  %.sroa.2.0..sroa_idx = getelementptr inbounds nuw i8, ptr %3, i64 24
  %.sroa.2.0.copyload = load i64, ptr %.sroa.2.0..sroa_idx, align 8
  %12 = load i64, ptr %3, align 8, !tbaa !62
  %13 = sub nsw i64 %2, %12
  %sext.i.i = shl i64 %.sroa.2.0.copyload, 56
  %14 = ashr exact i64 %sext.i.i, 56
  %15 = shl i64 %.sroa.2.0.copyload, 48
  %16 = ashr i64 %15, 56
  %17 = shl i64 %.sroa.2.0.copyload, 40
  %18 = ashr i64 %17, 56
  %19 = shl i64 %.sroa.2.0.copyload, 32
  %20 = ashr i64 %19, 56
  %21 = sdiv i64 %13, 60
  %22 = add nsw i64 %21, %20
  %23 = shl i64 %.sroa.2.0.copyload, 24
  %24 = ashr i64 %23, 56
  %25 = srem i64 %13, 60
  %26 = add nsw i64 %25, %24
  %27 = tail call { i64, i64 } @_ZN4absl13time_internal4cctz6detail4impl5n_secEllllll(i64 noundef %.sroa.0.0.copyload, i64 noundef %14, i64 noundef %16, i64 noundef %18, i64 noundef %22, i64 noundef %26) #25
  %.fca.1.extract.i.i = extractvalue { i64, i64 } %27, 1
  %.sroa.2.8.insert.ext.i = and i64 %.fca.1.extract.i.i, 1099511627775
  %28 = extractvalue { i64, i64 } %27, 0
  store i64 %28, ptr %0, align 8
  %29 = getelementptr inbounds nuw i8, ptr %0, i64 8
  store i64 %.sroa.2.8.insert.ext.i, ptr %29, align 8
  %30 = getelementptr inbounds nuw i8, ptr %0, i64 16
  %31 = load i32, ptr %10, align 8, !tbaa !23
  store i32 %31, ptr %30, align 8, !tbaa !90
  %32 = getelementptr inbounds nuw i8, ptr %0, i64 20
  %33 = getelementptr inbounds nuw i8, ptr %10, i64 40
  %34 = load i8, ptr %33, align 8, !tbaa !24, !range !25, !noundef !26
  store i8 %34, ptr %32, align 4, !tbaa !92
  %35 = getelementptr inbounds nuw i8, ptr %0, i64 24
  %36 = getelementptr inbounds nuw i8, ptr %1, i64 64
  %37 = getelementptr inbounds nuw i8, ptr %10, i64 41
  %38 = load i8, ptr %37, align 1, !tbaa !16
  %39 = zext i8 %38 to i64
  %40 = load ptr, ptr %36, align 8, !tbaa !22
  %41 = getelementptr inbounds nuw i8, ptr %40, i64 %39
  store ptr %41, ptr %35, align 8, !tbaa !93
  ret void
}